target datalayout = "e-m:e-p270:32:32-p271:32:32-p272:64:64-i64:64-i128:128-f80:128-n8:16:32:64-S128"
target triple = "x86_64-unknown-linux-gnu"

%"class.std::__shared_count" = type { ptr }
%"class.std::__cxx11::basic_string" = type { %"struct.std::__cxx11::basic_string<char>::_Alloc_hider", i64, %union.anon.16 }
%"struct.std::__cxx11::basic_string<char>::_Alloc_hider" = type { ptr }
%union.anon.16 = type { i64, [8 x i8] }
%"class.rocksdb::TransactionBaseImpl" = type { %"class.rocksdb::Transaction", ptr, ptr, %"struct.rocksdb::WriteOptions", ptr, ptr, i64, %"class.std::shared_ptr.33", i64, i64, i64, %"class.rocksdb::WriteBatchWithIndex", %"class.std::unique_ptr.44", %"class.std::unique_ptr.52", %"class.rocksdb::WriteBatch", i8, i8, %"class.std::shared_ptr.77" }
%"class.rocksdb::Transaction" = type { ptr, i64, %"class.std::__cxx11::basic_string", %"struct.std::atomic", i64 }
%"struct.std::atomic" = type { i32 }
%"struct.rocksdb::WriteOptions" = type { i8, i8, i8, i8, i8, i8, i32, i64 }
%"class.std::shared_ptr.33" = type { %"class.std::__shared_ptr.34" }
%"class.std::__shared_ptr.34" = type { ptr, %"class.std::__shared_count" }
%"class.rocksdb::WriteBatchWithIndex" = type { %"class.rocksdb::WriteBatchBase", %"class.std::unique_ptr.36" }
%"class.rocksdb::WriteBatchBase" = type { ptr }
%"class.std::unique_ptr.36" = type { %"struct.std::__uniq_ptr_data.37" }
%"struct.std::__uniq_ptr_data.37" = type { %"class.std::__uniq_ptr_impl.38" }
%"class.std::__uniq_ptr_impl.38" = type { %"class.std::tuple.39" }
%"class.std::tuple.39" = type { %"struct.std::_Tuple_impl.40" }
%"struct.std::_Tuple_impl.40" = type { %"struct.std::_Head_base.43" }
%"struct.std::_Head_base.43" = type { ptr }
%"class.std::unique_ptr.44" = type { %"struct.std::__uniq_ptr_data.45" }
%"struct.std::__uniq_ptr_data.45" = type { %"class.std::__uniq_ptr_impl.46" }
%"class.std::__uniq_ptr_impl.46" = type { %"class.std::tuple.47" }
%"class.std::tuple.47" = type { %"struct.std::_Tuple_impl.48" }
%"struct.std::_Tuple_impl.48" = type { %"struct.std::_Head_base.51" }
%"struct.std::_Head_base.51" = type { ptr }
%"class.std::unique_ptr.52" = type { %"struct.std::__uniq_ptr_data.53" }
%"struct.std::__uniq_ptr_data.53" = type { %"class.std::__uniq_ptr_impl.54" }
%"class.std::__uniq_ptr_impl.54" = type { %"class.std::tuple.55" }
%"class.std::tuple.55" = type { %"struct.std::_Tuple_impl.56" }
%"struct.std::_Tuple_impl.56" = type { %"struct.std::_Head_base.59" }
%"struct.std::_Head_base.59" = type { ptr }
%"class.rocksdb::WriteBatch" = type { %"class.rocksdb::WriteBatchBase", %"class.std::unique_ptr.60", %"struct.rocksdb::SavePoint", i8, i8, i8, %"struct.std::atomic.68", i64, %"class.std::unique_ptr.69", i64, %"class.std::__cxx11::basic_string" }
%"class.std::unique_ptr.60" = type { %"struct.std::__uniq_ptr_data.61" }
%"struct.std::__uniq_ptr_data.61" = type { %"class.std::__uniq_ptr_impl.62" }
%"class.std::__uniq_ptr_impl.62" = type { %"class.std::tuple.63" }
%"class.std::tuple.63" = type { %"struct.std::_Tuple_impl.64" }
%"struct.std::_Tuple_impl.64" = type { %"struct.std::_Head_base.67" }
%"struct.std::_Head_base.67" = type { ptr }
%"struct.rocksdb::SavePoint" = type { i64, i32, i32 }
%"struct.std::atomic.68" = type { %"struct.std::__atomic_base" }
%"struct.std::__atomic_base" = type { i32 }
%"class.std::unique_ptr.69" = type { %"struct.std::__uniq_ptr_data.70" }
%"struct.std::__uniq_ptr_data.70" = type { %"class.std::__uniq_ptr_impl.71" }
%"class.std::__uniq_ptr_impl.71" = type { %"class.std::tuple.72" }
%"class.std::tuple.72" = type { %"struct.std::_Tuple_impl.73" }
%"struct.std::_Tuple_impl.73" = type { %"struct.std::_Head_base.76" }
%"struct.std::_Head_base.76" = type { ptr }
%"class.std::shared_ptr.77" = type { %"class.std::__shared_ptr.78" }
%"class.std::__shared_ptr.78" = type { ptr, %"class.std::__shared_count" }
%"class.rocksdb::RangeTreeLockTracker" = type { %"class.rocksdb::LockTracker", %"class.std::unique_ptr.106" }
%"class.rocksdb::LockTracker" = type { ptr }
%"class.std::unique_ptr.106" = type { %"struct.std::__uniq_ptr_data.107" }
%"struct.std::__uniq_ptr_data.107" = type { %"class.std::__uniq_ptr_impl.108" }
%"class.std::__uniq_ptr_impl.108" = type { %"class.std::tuple.109" }
%"class.std::tuple.109" = type { %"struct.std::_Tuple_impl.110" }
%"struct.std::_Tuple_impl.110" = type { %"struct.std::_Head_base.113" }
%"struct.std::_Head_base.113" = type { ptr }

; Function Attrs: mustprogress nounwind uwtable
define linkonce_odr noundef nonnull align 8 dereferenceable(8) ptr @_ZNSt10_Head_baseILm0EPN7rocksdb13RangeLockListELb0EE7_M_headERKS3_(ptr noundef nonnull align 8 dereferenceable(8) %__b) #1 comdat align 2 {
entry:
  %__b.addr = alloca ptr, align 8
  store ptr %__b, ptr %__b.addr, align 8
  %0 = load ptr, ptr %__b.addr, align 8
  %_M_head_impl = getelementptr inbounds %"struct.std::_Head_base.113", ptr %0, i32 0, i32 0
  ret ptr %_M_head_impl
}

; Function Attrs: mustprogress nounwind uwtable
define linkonce_odr noundef nonnull align 8 dereferenceable(8) ptr @_ZNSt10_Head_baseILm0EPN7rocksdb11LockTrackerELb0EE7_M_headERKS3_(ptr noundef nonnull align 8 dereferenceable(8) %__b) #1 comdat align 2 {
entry:
  %__b.addr = alloca ptr, align 8
  store ptr %__b, ptr %__b.addr, align 8
  %0 = load ptr, ptr %__b.addr, align 8
  %_M_head_impl = getelementptr inbounds %"struct.std::_Head_base.51", ptr %0, i32 0, i32 0
  ret ptr %_M_head_impl
}

; Function Attrs: mustprogress nounwind uwtable
define linkonce_odr noundef nonnull align 8 dereferenceable(8) ptr @_ZNSt11_Tuple_implILm0EJPN7rocksdb13RangeLockListESt14default_deleteIS1_EEE7_M_headERKS5_(ptr noundef nonnull align 8 dereferenceable(8) %__t) #1 comdat align 2 {
entry:
  %__t.addr = alloca ptr, align 8
  store ptr %__t, ptr %__t.addr, align 8
  %0 = load ptr, ptr %__t.addr, align 8
  %call = call noundef nonnull align 8 dereferenceable(8) ptr @_ZNSt10_Head_baseILm0EPN7rocksdb13RangeLockListELb0EE7_M_headERKS3_(ptr noundef nonnull align 8 dereferenceable(8) %0) #3
  ret ptr %call
}

; Function Attrs: mustprogress nounwind uwtable
define linkonce_odr noundef nonnull align 8 dereferenceable(8) ptr @_ZNSt11_Tuple_implILm0EJPN7rocksdb11LockTrackerESt14default_deleteIS1_EEE7_M_headERKS5_(ptr noundef nonnull align 8 dereferenceable(8) %__t) #1 comdat align 2 {
entry:
  %__t.addr = alloca ptr, align 8
  store ptr %__t, ptr %__t.addr, align 8
  %0 = load ptr, ptr %__t.addr, align 8
  %call = call noundef nonnull align 8 dereferenceable(8) ptr @_ZNSt10_Head_baseILm0EPN7rocksdb11LockTrackerELb0EE7_M_headERKS3_(ptr noundef nonnull align 8 dereferenceable(8) %0) #3
  ret ptr %call
}

; Function Attrs: mustprogress nounwind uwtable
define linkonce_odr noundef nonnull align 8 dereferenceable(8) ptr @_ZSt12__get_helperILm0EPN7rocksdb13RangeLockListEJSt14default_deleteIS1_EEERKT0_RKSt11_Tuple_implIXT_EJS5_DpT1_EE(ptr noundef nonnull align 8 dereferenceable(8) %__t) #1 comdat {
entry:
  %__t.addr = alloca ptr, align 8
  store ptr %__t, ptr %__t.addr, align 8
  %0 = load ptr, ptr %__t.addr, align 8
  %call = call noundef nonnull align 8 dereferenceable(8) ptr @_ZNSt11_Tuple_implILm0EJPN7rocksdb13RangeLockListESt14default_deleteIS1_EEE7_M_headERKS5_(ptr noundef nonnull align 8 dereferenceable(8) %0) #3
  ret ptr %call
}

; Function Attrs: mustprogress nounwind uwtable
define linkonce_odr noundef nonnull align 8 dereferenceable(8) ptr @_ZSt12__get_helperILm0EPN7rocksdb11LockTrackerEJSt14default_deleteIS1_EEERKT0_RKSt11_Tuple_implIXT_EJS5_DpT1_EE(ptr noundef nonnull align 8 dereferenceable(8) %__t) #1 comdat {
entry:
  %__t.addr = alloca ptr, align 8
  store ptr %__t, ptr %__t.addr, align 8
  %0 = load ptr, ptr %__t.addr, align 8
  %call = call noundef nonnull align 8 dereferenceable(8) ptr @_ZNSt11_Tuple_implILm0EJPN7rocksdb11LockTrackerESt14default_deleteIS1_EEE7_M_headERKS5_(ptr noundef nonnull align 8 dereferenceable(8) %0) #3
  ret ptr %call
}

; Function Attrs: mustprogress nounwind uwtable
define linkonce_odr noundef nonnull align 8 dereferenceable(8) ptr @_ZSt3getILm0EJPN7rocksdb13RangeLockListESt14default_deleteIS1_EEERKNSt13tuple_elementIXT_ESt5tupleIJDpT0_EEE4typeERKS9_(ptr noundef nonnull align 8 dereferenceable(8) %__t) #1 comdat {
entry:
  %__t.addr = alloca ptr, align 8
  store ptr %__t, ptr %__t.addr, align 8
  %0 = load ptr, ptr %__t.addr, align 8
  %call = call noundef nonnull align 8 dereferenceable(8) ptr @_ZSt12__get_helperILm0EPN7rocksdb13RangeLockListEJSt14default_deleteIS1_EEERKT0_RKSt11_Tuple_implIXT_EJS5_DpT1_EE(ptr noundef nonnull align 8 dereferenceable(8) %0) #3
  ret ptr %call
}

; Function Attrs: mustprogress nounwind uwtable
define linkonce_odr noundef nonnull align 8 dereferenceable(8) ptr @_ZSt3getILm0EJPN7rocksdb11LockTrackerESt14default_deleteIS1_EEERKNSt13tuple_elementIXT_ESt5tupleIJDpT0_EEE4typeERKS9_(ptr noundef nonnull align 8 dereferenceable(8) %__t) #1 comdat {
entry:
  %__t.addr = alloca ptr, align 8
  store ptr %__t, ptr %__t.addr, align 8
  %0 = load ptr, ptr %__t.addr, align 8
  %call = call noundef nonnull align 8 dereferenceable(8) ptr @_ZSt12__get_helperILm0EPN7rocksdb11LockTrackerEJSt14default_deleteIS1_EEERKT0_RKSt11_Tuple_implIXT_EJS5_DpT1_EE(ptr noundef nonnull align 8 dereferenceable(8) %0) #3
  ret ptr %call
}

; Function Attrs: mustprogress nounwind uwtable
define linkonce_odr noundef ptr @_ZNKSt15__uniq_ptr_implIN7rocksdb13RangeLockListESt14default_deleteIS1_EE6_M_ptrEv(ptr noundef nonnull align 8 dereferenceable(8) %this) #1 comdat align 2 {
entry:
  %this.addr = alloca ptr, align 8
  store ptr %this, ptr %this.addr, align 8
  %this1 = load ptr, ptr %this.addr, align 8
  %_M_t = getelementptr inbounds %"class.std::__uniq_ptr_impl.108", ptr %this1, i32 0, i32 0
  %call = call noundef nonnull align 8 dereferenceable(8) ptr @_ZSt3getILm0EJPN7rocksdb13RangeLockListESt14default_deleteIS1_EEERKNSt13tuple_elementIXT_ESt5tupleIJDpT0_EEE4typeERKS9_(ptr noundef nonnull align 8 dereferenceable(8) %_M_t) #3
  %0 = load ptr, ptr %call, align 8
  ret ptr %0
}

; Function Attrs: mustprogress nounwind uwtable
define linkonce_odr noundef ptr @_ZNKSt15__uniq_ptr_implIN7rocksdb11LockTrackerESt14default_deleteIS1_EE6_M_ptrEv(ptr noundef nonnull align 8 dereferenceable(8) %this) #1 comdat align 2 {
entry:
  %this.addr = alloca ptr, align 8
  store ptr %this, ptr %this.addr, align 8
  %this1 = load ptr, ptr %this.addr, align 8
  %_M_t = getelementptr inbounds %"class.std::__uniq_ptr_impl.46", ptr %this1, i32 0, i32 0
  %call = call noundef nonnull align 8 dereferenceable(8) ptr @_ZSt3getILm0EJPN7rocksdb11LockTrackerESt14default_deleteIS1_EEERKNSt13tuple_elementIXT_ESt5tupleIJDpT0_EEE4typeERKS9_(ptr noundef nonnull align 8 dereferenceable(8) %_M_t) #3
  %0 = load ptr, ptr %call, align 8
  ret ptr %0
}

; Function Attrs: mustprogress nounwind uwtable
define linkonce_odr noundef ptr @_ZNKSt10unique_ptrIN7rocksdb13RangeLockListESt14default_deleteIS1_EE3getEv(ptr noundef nonnull align 8 dereferenceable(8) %this) #1 comdat align 2 {
entry:
  %this.addr = alloca ptr, align 8
  store ptr %this, ptr %this.addr, align 8
  %this1 = load ptr, ptr %this.addr, align 8
  %_M_t = getelementptr inbounds %"class.std::unique_ptr.106", ptr %this1, i32 0, i32 0
  %call = call noundef ptr @_ZNKSt15__uniq_ptr_implIN7rocksdb13RangeLockListESt14default_deleteIS1_EE6_M_ptrEv(ptr noundef nonnull align 8 dereferenceable(8) %_M_t) #3
  ret ptr %call
}

; Function Attrs: mustprogress nounwind uwtable
define linkonce_odr noundef ptr @_ZNKSt10unique_ptrIN7rocksdb11LockTrackerESt14default_deleteIS1_EE3getEv(ptr noundef nonnull align 8 dereferenceable(8) %this) #1 comdat align 2 {
entry:
  %this.addr = alloca ptr, align 8
  store ptr %this, ptr %this.addr, align 8
  %this1 = load ptr, ptr %this.addr, align 8
  %_M_t = getelementptr inbounds %"class.std::unique_ptr.44", ptr %this1, i32 0, i32 0
  %call = call noundef ptr @_ZNKSt15__uniq_ptr_implIN7rocksdb11LockTrackerESt14default_deleteIS1_EE6_M_ptrEv(ptr noundef nonnull align 8 dereferenceable(8) %_M_t) #3
  ret ptr %call
}

; Function Attrs: mustprogress nounwind uwtable
define linkonce_odr noundef ptr @_ZNKSt10unique_ptrIN7rocksdb13RangeLockListESt14default_deleteIS1_EEptEv(ptr noundef nonnull align 8 dereferenceable(8) %this) #1 comdat align 2 {
entry:
  %this.addr = alloca ptr, align 8
  store ptr %this, ptr %this.addr, align 8
  %this1 = load ptr, ptr %this.addr, align 8
  %call = call noundef ptr @_ZNKSt10unique_ptrIN7rocksdb13RangeLockListESt14default_deleteIS1_EE3getEv(ptr noundef nonnull align 8 dereferenceable(8) %this1) #3
  ret ptr %call
}

; Function Attrs: mustprogress nounwind uwtable
define linkonce_odr noundef zeroext i1 @_ZNKSt10unique_ptrIN7rocksdb13RangeLockListESt14default_deleteIS1_EEcvbEv(ptr noundef nonnull align 8 dereferenceable(8) %this) #1 comdat align 2 {
entry:
  %this.addr = alloca ptr, align 8
  store ptr %this, ptr %this.addr, align 8
  %this1 = load ptr, ptr %this.addr, align 8
  %call = call noundef ptr @_ZNKSt10unique_ptrIN7rocksdb13RangeLockListESt14default_deleteIS1_EE3getEv(ptr noundef nonnull align 8 dereferenceable(8) %this1) #3
  %cmp = icmp eq ptr %call, null
  %cond = select i1 %cmp, i1 false, i1 true
  ret i1 %cond
}

; Function Attrs: mustprogress nounwind uwtable
define linkonce_odr noundef nonnull align 8 dereferenceable(8) ptr @_ZNKSt10unique_ptrIN7rocksdb11LockTrackerESt14default_deleteIS1_EEdeEv(ptr noundef nonnull align 8 dereferenceable(8) %this) #1 comdat align 2 {
entry:
  %this.addr = alloca ptr, align 8
  store ptr %this, ptr %this.addr, align 8
  %this1 = load ptr, ptr %this.addr, align 8
  br label %do.body

do.body:                                          ; preds = %entry
  br label %do.cond

do.cond:                                          ; preds = %do.body
  br label %do.end

do.end:                                           ; preds = %do.cond
  %call = call noundef ptr @_ZNKSt10unique_ptrIN7rocksdb11LockTrackerESt14default_deleteIS1_EE3getEv(ptr noundef nonnull align 8 dereferenceable(8) %this1) #3
  ret ptr %call
}

; Function Attrs: mustprogress uwtable
define linkonce_odr void @_ZN7rocksdb20RangeTreeLockTracker12ReleaseLocksEPNS_20RangeTreeLockManagerEPNS_22PessimisticTransactionEb(ptr noundef nonnull align 8 dereferenceable(16) %this, ptr noundef %mgr, ptr noundef %txn, i1 noundef zeroext %all_trx_locks) #0 comdat align 2 {
entry:
  %this.addr = alloca ptr, align 8
  %mgr.addr = alloca ptr, align 8
  %txn.addr = alloca ptr, align 8
  %all_trx_locks.addr = alloca i8, align 1
  store ptr %this, ptr %this.addr, align 8
  store ptr %mgr, ptr %mgr.addr, align 8
  store ptr %txn, ptr %txn.addr, align 8
  %frombool = zext i1 %all_trx_locks to i8
  store i8 %frombool, ptr %all_trx_locks.addr, align 1
  %this1 = load ptr, ptr %this.addr, align 8
  %range_list_ = getelementptr inbounds %"class.rocksdb::RangeTreeLockTracker", ptr %this1, i32 0, i32 1
  %call = call noundef zeroext i1 @_ZNKSt10unique_ptrIN7rocksdb13RangeLockListESt14default_deleteIS1_EEcvbEv(ptr noundef nonnull align 8 dereferenceable(8) %range_list_) #3
  br i1 %call, label %if.then, label %if.end

if.then:                                          ; preds = %entry
  %range_list_2 = getelementptr inbounds %"class.rocksdb::RangeTreeLockTracker", ptr %this1, i32 0, i32 1
  %call3 = call noundef ptr @_ZNKSt10unique_ptrIN7rocksdb13RangeLockListESt14default_deleteIS1_EEptEv(ptr noundef nonnull align 8 dereferenceable(8) %range_list_2) #3
  %0 = load ptr, ptr %mgr.addr, align 8
  %1 = load ptr, ptr %txn.addr, align 8
  %2 = load i8, ptr %all_trx_locks.addr, align 1
  %tobool = trunc i8 %2 to i1
  call void @_ZN7rocksdb13RangeLockList12ReleaseLocksEPNS_20RangeTreeLockManagerEPNS_22PessimisticTransactionEb(ptr noundef nonnull align 8 dereferenceable(97) %call3, ptr noundef %0, ptr noundef %1, i1 noundef zeroext %tobool)
  br label %if.end

if.end:                                           ; preds = %if.then, %entry
  ret void
}

; Function Attrs: mustprogress nounwind uwtable
define linkonce_odr noundef nonnull align 8 dereferenceable(8) ptr @_ZN7rocksdb19TransactionBaseImpl15GetTrackedLocksEv(ptr noundef nonnull align 8 dereferenceable(320) %this) #1 comdat align 2 {
entry:
  %this.addr = alloca ptr, align 8
  store ptr %this, ptr %this.addr, align 8
  %this1 = load ptr, ptr %this.addr, align 8
  %tracked_locks_ = getelementptr inbounds %"class.rocksdb::TransactionBaseImpl", ptr %this1, i32 0, i32 12
  %call = call noundef nonnull align 8 dereferenceable(8) ptr @_ZNKSt10unique_ptrIN7rocksdb11LockTrackerESt14default_deleteIS1_EEdeEv(ptr noundef nonnull align 8 dereferenceable(8) %tracked_locks_) #3
  ret ptr %call
}

; Function Attrs: mustprogress uwtable
define void @_ZN7rocksdb20RangeTreeLockManager6UnLockEPNS_22PessimisticTransactionERKNS_11LockTrackerEPNS_3EnvE(ptr noundef nonnull align 8 dereferenceable(656) %this, ptr noundef %txn, ptr noundef nonnull align 8 dereferenceable(8) %tracker, ptr noundef %0) unnamed_addr #0 align 2 {
entry:
  %this.addr = alloca ptr, align 8
  %txn.addr = alloca ptr, align 8
  %tracker.addr = alloca ptr, align 8
  %.addr = alloca ptr, align 8
  %range_tracker = alloca ptr, align 8
  %range_trx_tracker = alloca ptr, align 8
  %all_keys = alloca i8, align 1
  store ptr %this, ptr %this.addr, align 8
  store ptr %txn, ptr %txn.addr, align 8
  store ptr %tracker, ptr %tracker.addr, align 8
  store ptr %0, ptr %.addr, align 8
  %this1 = load ptr, ptr %this.addr, align 8
  %1 = load ptr, ptr %tracker.addr, align 8
  store ptr %1, ptr %range_tracker, align 8
  %2 = load ptr, ptr %txn.addr, align 8
  %call = call noundef nonnull align 8 dereferenceable(8) ptr @_ZN7rocksdb19TransactionBaseImpl15GetTrackedLocksEv(ptr noundef nonnull align 8 dereferenceable(320) %2)
  store ptr %call, ptr %range_trx_tracker, align 8
  %3 = load ptr, ptr %range_trx_tracker, align 8
  %4 = load ptr, ptr %range_tracker, align 8
  %cmp = icmp eq ptr %3, %4
  %frombool = zext i1 %cmp to i8
  store i8 %frombool, ptr %all_keys, align 1
  %5 = load ptr, ptr %range_tracker, align 8
  %6 = load ptr, ptr %txn.addr, align 8
  %7 = load i8, ptr %all_keys, align 1
  %tobool = trunc i8 %7 to i1
  call void @_ZN7rocksdb20RangeTreeLockTracker12ReleaseLocksEPNS_20RangeTreeLockManagerEPNS_22PessimisticTransactionEb(ptr noundef nonnull align 8 dereferenceable(16) %5, ptr noundef %this1, ptr noundef %6, i1 noundef zeroext %tobool)
  ret void
}