; Function Attrs: mustprogress uwtable
define void @_ZN7rocksdb20RangeTreeLockManager6UnLockEPNS_22PessimisticTransactionERKNS_11LockTrackerEPNS_3EnvE(ptr noundef nonnull align 8 dereferenceable(656) %this, ptr noundef %txn, ptr noundef nonnull readonly align 8 dereferenceable(8) %tracker, ptr nocapture readnone %0) unnamed_addr #2 align 2 {
entry:
  %range_list_.i = getelementptr inbounds i8, ptr %tracker, i64 8
  %1 = load ptr, ptr %range_list_.i, align 8
  %cmp.i.not.i = icmp eq ptr %1, null
  br i1 %cmp.i.not.i, label %_ZN7rocksdb20RangeTreeLockTracker12ReleaseLocksEPNS_20RangeTreeLockManagerEPNS_22PessimisticTransactionEb.exit, label %if.then.i

if.then.i:                                        ; preds = %entry
  %tracked_locks_.i = getelementptr inbounds i8, ptr %txn, i64 184
  %2 = load ptr, ptr %tracked_locks_.i, align 8
  %cmp = icmp eq ptr %2, %tracker
  tail call void @_ZN7rocksdb13RangeLockList12ReleaseLocksEPNS_20RangeTreeLockManagerEPNS_22PessimisticTransactionEb(ptr noundef nonnull align 8 dereferenceable(97) %1, ptr noundef nonnull %this, ptr noundef nonnull %txn, i1 noundef zeroext %cmp)
  br label %_ZN7rocksdb20RangeTreeLockTracker12ReleaseLocksEPNS_20RangeTreeLockManagerEPNS_22PessimisticTransactionEb.exit

_ZN7rocksdb20RangeTreeLockTracker12ReleaseLocksEPNS_20RangeTreeLockManagerEPNS_22PessimisticTransactionEb.exit: ; preds = %entry, %if.then.i
  ret void
}